target datalayout = "e-m:e-p270:32:32-p271:32:32-p272:64:64-i64:64-i128:128-f80:128-n8:16:32:64-S128"
target triple = "x86_64-pc-linux-gnu"

%struct.SDL_GUID = type { [16 x i8] }

; Function Attrs: nounwind uwtable
define hidden i32 @SDL_GetJoystickTypeForID_REAL(i32 noundef %0) #0 {
  %2 = alloca i32, align 4
  %3 = alloca i32, align 4
  %4 = alloca %struct.SDL_GUID, align 1
  store i32 %0, ptr %2, align 4
  call void @llvm.lifetime.start.p0(i64 4, ptr %3) #7
  call void @llvm.lifetime.start.p0(i64 16, ptr %4) #7
  %5 = load i32, ptr %2, align 4
  %6 = call { i64, i64 } @SDL_GetJoystickGUIDForID_REAL(i32 noundef %5)
  %7 = getelementptr inbounds nuw %struct.SDL_GUID, ptr %4, i32 0, i32 0
  %8 = getelementptr inbounds nuw { i64, i64 }, ptr %7, i32 0, i32 0
  %9 = extractvalue { i64, i64 } %6, 0
  store i64 %9, ptr %8, align 1
  %10 = getelementptr inbounds nuw { i64, i64 }, ptr %7, i32 0, i32 1
  %11 = extractvalue { i64, i64 } %6, 1
  store i64 %11, ptr %10, align 1
  %12 = getelementptr inbounds nuw { i64, i64 }, ptr %4, i32 0, i32 0
  %13 = load i64, ptr %12, align 1
  %14 = getelementptr inbounds nuw { i64, i64 }, ptr %4, i32 0, i32 1
  %15 = load i64, ptr %14, align 1
  %16 = call i32 @SDL_GetJoystickGUIDType(i64 %13, i64 %15)
  store i32 %16, ptr %3, align 4
  %17 = load i32, ptr %3, align 4
  %18 = icmp eq i32 %17, 0
  br i1 %18, label %19, label %24

19:                                               ; preds = %1
  %20 = load i32, ptr %2, align 4
  %21 = call zeroext i1 @SDL_IsGamepad_REAL(i32 noundef %20)
  br i1 %21, label %22, label %23

22:                                               ; preds = %19
  store i32 1, ptr %3, align 4
  br label %23

23:                                               ; preds = %22, %19
  br label %24

24:                                               ; preds = %23, %1
  %25 = load i32, ptr %3, align 4
  call void @llvm.lifetime.end.p0(i64 16, ptr %4) #7
  call void @llvm.lifetime.end.p0(i64 4, ptr %3) #7
  ret i32 %25
}