; Function Attrs: nounwind uwtable
define hidden i32 @SDL_GetJoystickTypeForID_REAL(i32 noundef %0) local_unnamed_addr #1 {
  %2 = tail call { i64, i64 } @SDL_GetJoystickGUIDForID_REAL(i32 noundef %0)
  %3 = extractvalue { i64, i64 } %2, 0
  %4 = extractvalue { i64, i64 } %2, 1
  %5 = tail call fastcc i32 @SDL_GetJoystickGUIDType(i64 %3, i64 %4)
  %6 = icmp eq i32 %5, 0
  br i1 %6, label %7, label %9

7:                                                ; preds = %1
  %8 = tail call zeroext i1 @SDL_IsGamepad_REAL(i32 noundef %0) #13
  %spec.select = zext i1 %8 to i32
  br label %9

9:                                                ; preds = %7, %1
  %.0 = phi i32 [ %5, %1 ], [ %spec.select, %7 ]
  ret i32 %.0
}